target datalayout = "e-m:e-p270:32:32-p271:32:32-p272:64:64-i64:64-i128:128-f80:128-n8:16:32:64-S128"
target triple = "x86_64-unknown-linux-gnu"

; Function Attrs: fn_ret_thunk_extern nounwind null_pointer_is_valid
define dso_local void @pci_assign_irq(ptr noundef %0) local_unnamed_addr #0 align 16 {
  %2 = alloca i8, align 1
  call void @llvm.lifetime.start.p0(i64 1, ptr nonnull %2) #3
  store i8 0, ptr %2, align 1, !annotation !5
  %3 = getelementptr inbounds i8, ptr %0, i64 16
  %4 = load ptr, ptr %3, align 8
  %5 = tail call ptr @pci_find_host_bridge(ptr noundef %4) #3
  %6 = getelementptr inbounds i8, ptr %5, i64 808
  %7 = load ptr, ptr %6, align 8
  %8 = icmp eq ptr %7, null
  br i1 %8, label %35, label %9

9:                                                ; preds = %1
  %10 = call i32 @pci_read_config_byte(ptr noundef %0, i32 noundef 61, ptr noundef nonnull %2) #3
  %11 = load i8, ptr %2, align 1
  %12 = icmp ugt i8 %11, 4
  br i1 %12, label %13, label %14

13:                                               ; preds = %9
  store i8 1, ptr %2, align 1
  br label %14

14:                                               ; preds = %13, %9
  %15 = load i8, ptr %2, align 1
  %16 = icmp eq i8 %15, 0
  br i1 %16, label %30, label %17

17:                                               ; preds = %14
  %18 = getelementptr inbounds i8, ptr %5, i64 800
  %19 = load ptr, ptr %18, align 32
  %20 = icmp eq ptr %19, null
  br i1 %20, label %23, label %21

21:                                               ; preds = %17
  %22 = call zeroext i8 %19(ptr noundef %0, ptr noundef nonnull %2) #3
  br label %23

23:                                               ; preds = %21, %17
  %24 = phi i8 [ %22, %21 ], [ -1, %17 ]
  %25 = load ptr, ptr %6, align 8
  %26 = load i8, ptr %2, align 1
  %27 = call i32 %25(ptr noundef %0, i8 noundef zeroext %24, i8 noundef zeroext %26) #3
  %28 = icmp eq i32 %27, -1
  %29 = select i1 %28, i32 0, i32 %27
  br label %30

30:                                               ; preds = %23, %14
  %31 = phi i32 [ %29, %23 ], [ 0, %14 ]
  %32 = getelementptr inbounds i8, ptr %0, i64 916
  store i32 %31, ptr %32, align 4
  %33 = trunc i32 %31 to i8
  %34 = call i32 @pci_write_config_byte(ptr noundef %0, i32 noundef 60, i8 noundef zeroext %33) #3
  br label %35

35:                                               ; preds = %30, %1
  call void @llvm.lifetime.end.p0(i64 1, ptr nonnull %2) #3
  ret void
}

; Function Attrs: nocallback nofree nosync nounwind willreturn memory(argmem: readwrite)
declare void @llvm.lifetime.start.p0(i64 immarg, ptr nocapture) #1

; Function Attrs: null_pointer_is_valid
declare dso_local ptr @pci_find_host_bridge(ptr noundef) local_unnamed_addr #2

; Function Attrs: null_pointer_is_valid
declare dso_local i32 @pci_read_config_byte(ptr noundef, i32 noundef, ptr noundef) local_unnamed_addr #2

; Function Attrs: null_pointer_is_valid
declare dso_local i32 @pci_write_config_byte(ptr noundef, i32 noundef, i8 noundef zeroext) local_unnamed_addr #2

; Function Attrs: nocallback nofree nosync nounwind willreturn memory(argmem: readwrite)
declare void @llvm.lifetime.end.p0(i64 immarg, ptr nocapture) #1


!llvm.module.flags = !{!0, !1, !2, !3, !4}

!0 = !{i32 1, !"wchar_size", i32 2}
!1 = !{i32 8, !"cf-protection-branch", i32 1}
!2 = !{i32 4, !"function_return_thunk_extern", i32 1}
!3 = !{i32 4, !"indirect_branch_cs_prefix", i32 1}
!4 = !{i32 4, !"SkipRaxSetup", i32 1}
!5 = !{!"auto-init"}
