; ModuleID = 'bench/linux/original/setup-irq.ll'
source_filename = "bench/linux/original/setup-irq.ll"
target datalayout = "e-m:e-p270:32:32-p271:32:32-p272:64:64-i64:64-i128:128-f80:128-n8:16:32:64-S128"
target triple = "x86_64-unknown-linux-gnu"

; Function Attrs: fn_ret_thunk_extern nounwind null_pointer_is_valid
define dso_local void @pci_assign_irq(ptr noundef %0) local_unnamed_addr #0 align 16 {
  %2 = alloca i8, align 1
  call void @llvm.lifetime.start.p0(i64 1, ptr nonnull %2) #3
  %3 = getelementptr inbounds i8, ptr %0, i64 16
  %4 = load ptr, ptr %3, align 8
  %5 = tail call ptr @pci_find_host_bridge(ptr noundef %4) #3
  %6 = getelementptr inbounds i8, ptr %5, i64 808
  %7 = load ptr, ptr %6, align 8
  %8 = icmp eq ptr %7, null
  br i1 %8, label %34, label %9

9:                                                ; preds = %1
  store i8 0, ptr %2, align 1, !annotation !5
  %10 = call i32 @pci_read_config_byte(ptr noundef %0, i32 noundef 61, ptr noundef nonnull %2) #3
  %11 = load i8, ptr %2, align 1
  %12 = icmp ugt i8 %11, 4
  br i1 %12, label %.thread, label %13

.thread:                                          ; preds = %9
  store i8 1, ptr %2, align 1
  br label %15

13:                                               ; preds = %9
  %14 = icmp eq i8 %11, 0
  br i1 %14, label %29, label %15

15:                                               ; preds = %.thread, %13
  %16 = phi i8 [ 1, %.thread ], [ %11, %13 ]
  %17 = getelementptr inbounds i8, ptr %5, i64 800
  %18 = load ptr, ptr %17, align 32
  %19 = icmp eq ptr %18, null
  br i1 %19, label %22, label %20

20:                                               ; preds = %15
  %21 = call zeroext i8 %18(ptr noundef %0, ptr noundef nonnull %2) #3
  %.pre = load i8, ptr %2, align 1
  br label %22

22:                                               ; preds = %20, %15
  %23 = phi i8 [ %.pre, %20 ], [ %16, %15 ]
  %24 = phi i8 [ %21, %20 ], [ -1, %15 ]
  %25 = load ptr, ptr %6, align 8
  %26 = call i32 %25(ptr noundef %0, i8 noundef zeroext %24, i8 noundef zeroext %23) #3
  %27 = icmp eq i32 %26, -1
  %28 = select i1 %27, i32 0, i32 %26
  br label %29

29:                                               ; preds = %22, %13
  %30 = phi i32 [ %28, %22 ], [ 0, %13 ]
  %31 = getelementptr inbounds i8, ptr %0, i64 916
  store i32 %30, ptr %31, align 4
  %32 = trunc i32 %30 to i8
  %33 = call i32 @pci_write_config_byte(ptr noundef %0, i32 noundef 60, i8 noundef zeroext %32) #3
  br label %34

34:                                               ; preds = %29, %1
  call void @llvm.lifetime.end.p0(i64 1, ptr nonnull %2) #3
  ret void
}

; Function Attrs: mustprogress nocallback nofree nosync nounwind willreturn memory(argmem: readwrite)
declare void @llvm.lifetime.start.p0(i64 immarg, ptr nocapture) #1

; Function Attrs: null_pointer_is_valid
declare dso_local ptr @pci_find_host_bridge(ptr noundef) local_unnamed_addr #2

; Function Attrs: null_pointer_is_valid
declare dso_local i32 @pci_read_config_byte(ptr noundef, i32 noundef, ptr noundef) local_unnamed_addr #2

; Function Attrs: null_pointer_is_valid
declare dso_local i32 @pci_write_config_byte(ptr noundef, i32 noundef, i8 noundef zeroext) local_unnamed_addr #2

; Function Attrs: mustprogress nocallback nofree nosync nounwind willreturn memory(argmem: readwrite)
declare void @llvm.lifetime.end.p0(i64 immarg, ptr nocapture) #1


!llvm.module.flags = !{!0, !1, !2, !3, !4}

!0 = !{i32 1, !"wchar_size", i32 2}
!1 = !{i32 8, !"cf-protection-branch", i32 1}
!2 = !{i32 4, !"function_return_thunk_extern", i32 1}
!3 = !{i32 4, !"indirect_branch_cs_prefix", i32 1}
!4 = !{i32 4, !"SkipRaxSetup", i32 1}
!5 = !{!"auto-init"}
